; Function Attrs: mustprogress uwtable
define hidden void @_ZN2cv7Cloning8evaluateERKNS_3MatERS1_S3_(ptr noundef nonnull align 8 dereferenceable(696) %0, ptr noundef nonnull align 8 dereferenceable(96) %1, ptr noundef nonnull align 8 dereferenceable(96) %2, ptr noundef nonnull align 8 dereferenceable(96) %3) local_unnamed_addr #0 align 2 personality ptr @__gxx_personality_v0 {
  %5 = alloca %"class.cv::_InputArray", align 8
  %6 = alloca %"class.cv::_OutputArray", align 8
  %7 = alloca %"class.cv::_OutputArray", align 8
  %8 = alloca %"class.cv::_InputArray", align 8
  %9 = alloca %"class.cv::_OutputArray", align 8
  %10 = getelementptr inbounds i8, ptr %5, i64 16
  store i32 0, ptr %10, align 8
  %11 = getelementptr inbounds i8, ptr %5, i64 20
  store i32 0, ptr %11, align 4
  store i32 16842752, ptr %5, align 8
  %12 = getelementptr inbounds i8, ptr %5, i64 8
  store ptr %2, ptr %12, align 8
  %13 = getelementptr inbounds i8, ptr %6, i64 8
  %14 = getelementptr inbounds i8, ptr %6, i64 16
  store i64 0, ptr %14, align 8
  store i32 33619968, ptr %6, align 8
  store ptr %2, ptr %13, align 8
  %15 = tail call noundef nonnull align 8 dereferenceable(24) ptr @_ZN2cv7noArrayEv()
  call void @_ZN2cv11bitwise_notERKNS_11_InputArrayERKNS_12_OutputArrayES2_(ptr noundef nonnull align 8 dereferenceable(24) %5, ptr noundef nonnull align 8 dereferenceable(24) %6, ptr noundef nonnull align 8 dereferenceable(24) %15)
  %16 = getelementptr inbounds i8, ptr %0, i64 552
  %17 = getelementptr inbounds i8, ptr %7, i64 8
  %18 = getelementptr inbounds i8, ptr %7, i64 16
  store i64 0, ptr %18, align 8
  store i32 33619968, ptr %7, align 8
  store ptr %16, ptr %17, align 8
  call void @_ZNK2cv3Mat9convertToERKNS_12_OutputArrayEidd(ptr noundef nonnull align 8 dereferenceable(96) %2, ptr noundef nonnull align 8 dereferenceable(24) %7, i32 noundef 5, double noundef 0x3F70101010101010, double noundef 0.000000e+00)
  %19 = getelementptr inbounds i8, ptr %0, i64 72
  call void @_ZNK2cv7Cloning12arrayProductERKNS_3MatES3_RS1_(ptr nonnull align 8 poison, ptr noundef nonnull align 8 dereferenceable(96) %19, ptr noundef nonnull align 8 dereferenceable(96) %16, ptr noundef nonnull align 8 dereferenceable(96) %19)
  %20 = getelementptr inbounds i8, ptr %0, i64 168
  call void @_ZNK2cv7Cloning12arrayProductERKNS_3MatES3_RS1_(ptr nonnull align 8 poison, ptr noundef nonnull align 8 dereferenceable(96) %20, ptr noundef nonnull align 8 dereferenceable(96) %16, ptr noundef nonnull align 8 dereferenceable(96) %20)
  call void @_ZN2cv7Cloning7poissonERKNS_3MatE(ptr noundef nonnull align 8 dereferenceable(696) %0, ptr noundef nonnull align 8 dereferenceable(96) %1)
  %21 = getelementptr inbounds i8, ptr %0, i64 48
  %22 = getelementptr inbounds i8, ptr %8, i64 16
  store i32 0, ptr %22, align 8
  %23 = getelementptr inbounds i8, ptr %8, i64 20
  store i32 0, ptr %23, align 4
  store i32 17104896, ptr %8, align 8
  %24 = getelementptr inbounds i8, ptr %8, i64 8
  store ptr %21, ptr %24, align 8
  %25 = getelementptr inbounds i8, ptr %9, i64 8
  %26 = getelementptr inbounds i8, ptr %9, i64 16
  store i64 0, ptr %26, align 8
  store i32 -1040121856, ptr %9, align 8
  store ptr %3, ptr %25, align 8
  call void @_ZN2cv5mergeERKNS_11_InputArrayERKNS_12_OutputArrayE(ptr noundef nonnull align 8 dereferenceable(24) %8, ptr noundef nonnull align 8 dereferenceable(24) %9)
  ret void
}